target datalayout = "e-m:e-p270:32:32-p271:32:32-p272:64:64-i64:64-i128:128-f80:128-n8:16:32:64-S128"
target triple = "x86_64-pc-linux-gnu"

%struct.mbedtls_ecp_curve_info = type { i32, i16, i16, ptr }

; Function Attrs: nounwind uwtable
define hidden ptr @mbedtls_ecp_curve_list() #0 {
  ret ptr @ecp_supported_curves
}

; Function Attrs: nounwind uwtable
define hidden ptr @mbedtls_ecp_curve_info_from_name(ptr noundef %0) #0 {
  %2 = alloca ptr, align 8
  %3 = alloca ptr, align 8
  %4 = alloca ptr, align 8
  %5 = alloca i32, align 4
  store ptr %0, ptr %3, align 8, !tbaa !22
  call void @llvm.lifetime.start.p0(i64 8, ptr %4) #11
  %6 = load ptr, ptr %3, align 8, !tbaa !22
  %7 = icmp eq ptr %6, null
  br i1 %7, label %8, label %9

8:                                                ; preds = %1
  store ptr null, ptr %2, align 8
  store i32 1, ptr %5, align 4
  br label %30

9:                                                ; preds = %1
  %10 = call ptr @mbedtls_ecp_curve_list()
  store ptr %10, ptr %4, align 8, !tbaa !9
  br label %11

11:                                               ; preds = %26, %9
  %12 = load ptr, ptr %4, align 8, !tbaa !9
  %13 = getelementptr inbounds nuw %struct.mbedtls_ecp_curve_info, ptr %12, i32 0, i32 0
  %14 = load i32, ptr %13, align 8, !tbaa !12
  %15 = icmp ne i32 %14, 0
  br i1 %15, label %16, label %29

16:                                               ; preds = %11
  %17 = load ptr, ptr %4, align 8, !tbaa !9
  %18 = getelementptr inbounds nuw %struct.mbedtls_ecp_curve_info, ptr %17, i32 0, i32 3
  %19 = load ptr, ptr %18, align 8, !tbaa !23
  %20 = load ptr, ptr %3, align 8, !tbaa !22
  %21 = call i32 @strcmp(ptr noundef %19, ptr noundef %20) #12
  %22 = icmp eq i32 %21, 0
  br i1 %22, label %23, label %25

23:                                               ; preds = %16
  %24 = load ptr, ptr %4, align 8, !tbaa !9
  store ptr %24, ptr %2, align 8
  store i32 1, ptr %5, align 4
  br label %30

25:                                               ; preds = %16
  br label %26

26:                                               ; preds = %25
  %27 = load ptr, ptr %4, align 8, !tbaa !9
  %28 = getelementptr inbounds nuw %struct.mbedtls_ecp_curve_info, ptr %27, i32 1
  store ptr %28, ptr %4, align 8, !tbaa !9
  br label %11, !llvm.loop !24

29:                                               ; preds = %11
  store ptr null, ptr %2, align 8
  store i32 1, ptr %5, align 4
  br label %30

30:                                               ; preds = %29, %23, %8
  call void @llvm.lifetime.end.p0(i64 8, ptr %4) #11
  %31 = load ptr, ptr %2, align 8
  ret ptr %31
}