; Function Attrs: nofree nounwind memory(read, inaccessiblemem: none) uwtable
define hidden noundef ptr @mbedtls_ecp_curve_info_from_name(ptr noundef readonly %0) local_unnamed_addr #4 {
  %2 = icmp eq ptr %0, null
  br i1 %2, label %.loopexit, label %.preheader

.preheader:                                       ; preds = %1, %7
  %.09 = phi ptr [ %8, %7 ], [ @ecp_supported_curves, %1 ]
  %3 = getelementptr inbounds nuw i8, ptr %.09, i64 8
  %4 = load ptr, ptr %3, align 8, !tbaa !17
  %5 = tail call i32 @strcmp(ptr noundef nonnull dereferenceable(1) %4, ptr noundef nonnull dereferenceable(1) %0) #20
  %6 = icmp eq i32 %5, 0
  br i1 %6, label %.loopexit, label %7

7:                                                ; preds = %.preheader
  %8 = getelementptr inbounds nuw i8, ptr %.09, i64 16
  %9 = load i32, ptr %8, align 8, !tbaa !7
  %.not = icmp eq i32 %9, 0
  br i1 %.not, label %.loopexit, label %.preheader, !llvm.loop !18

.loopexit:                                        ; preds = %7, %.preheader, %1
  %.07 = phi ptr [ null, %1 ], [ null, %7 ], [ %.09, %.preheader ]
  ret ptr %.07
}